target datalayout = "e-m:e-p270:32:32-p271:32:32-p272:64:64-i64:64-i128:128-f80:128-n8:16:32:64-S128"
target triple = "x86_64-pc-linux-gnu"

@_ZL8__viewer = internal global ptr null, align 8
@_ZL8highdpiw = internal global double 1.000000e+00, align 8
@_ZL8highdpih = internal global double 1.000000e+00, align 8

; Function Attrs: mustprogress uwtable
define internal void @_ZL15glfw_mouse_moveP10GLFWwindowdd(ptr noundef %0, double noundef %1, double noundef %2) #3 {
  %4 = alloca ptr, align 8
  %5 = alloca double, align 8
  %6 = alloca double, align 8
  store ptr %0, ptr %4, align 8, !tbaa !131
  store double %1, ptr %5, align 8, !tbaa !69
  store double %2, ptr %6, align 8, !tbaa !69
  %7 = load ptr, ptr @_ZL8__viewer, align 8, !tbaa !15
  %8 = load double, ptr %5, align 8, !tbaa !69
  %9 = load double, ptr @_ZL8highdpiw, align 8, !tbaa !69
  %10 = fmul double %8, %9
  %11 = fptosi double %10 to i32
  %12 = load double, ptr %6, align 8, !tbaa !69
  %13 = load double, ptr @_ZL8highdpih, align 8, !tbaa !69
  %14 = fmul double %12, %13
  %15 = fptosi double %14 to i32
  %16 = call noundef zeroext i1 @_ZN3igl6opengl4glfw6Viewer10mouse_moveEii(ptr noundef nonnull align 16 dereferenceable(616) %7, i32 noundef %11, i32 noundef %15)
  ret void
}