; Function Attrs: mustprogress uwtable
define internal void @_ZL15glfw_mouse_moveP10GLFWwindowdd(ptr readnone captures(none) %0, double noundef %1, double noundef %2) #0 {
  %4 = load ptr, ptr @_ZL8__viewer, align 8, !tbaa !66
  %5 = load double, ptr @_ZL8highdpiw, align 8, !tbaa !68
  %6 = fmul double %1, %5
  %7 = fptosi double %6 to i32
  %8 = load double, ptr @_ZL8highdpih, align 8, !tbaa !68
  %9 = fmul double %2, %8
  %10 = fptosi double %9 to i32
  %11 = tail call noundef zeroext i1 @_ZN3igl6opengl4glfw6Viewer10mouse_moveEii(ptr noundef nonnull align 16 dereferenceable(616) %4, i32 noundef %7, i32 noundef %10)
  ret void
}